target datalayout = "e-m:e-p270:32:32-p271:32:32-p272:64:64-i64:64-i128:128-f80:128-n8:16:32:64-S128"
target triple = "x86_64-pc-linux-gnu"

@_ZZN2cv3dnn14dnn4_v2024122325getParam_DNN_NETWORK_DUMPEvE16DNN_NETWORK_DUMP = internal global i64 0, align 8
@_ZGVZN2cv3dnn14dnn4_v2024122325getParam_DNN_NETWORK_DUMPEvE16DNN_NETWORK_DUMP = internal global i64 0, align 8
@.str = private unnamed_addr constant [24 x i8] c"OPENCV_DNN_NETWORK_DUMP\00", align 1

; Function Attrs: mustprogress uwtable
define hidden noundef i64 @_ZN2cv3dnn14dnn4_v2024122325getParam_DNN_NETWORK_DUMPEv() #4 personality ptr @__gxx_personality_v0 {
  %1 = alloca ptr, align 8
  %2 = alloca i32, align 4
  %3 = load atomic i8, ptr @_ZGVZN2cv3dnn14dnn4_v2024122325getParam_DNN_NETWORK_DUMPEvE16DNN_NETWORK_DUMP acquire, align 8
  %4 = icmp eq i8 %3, 0
  br i1 %4, label %5, label %11, !prof !3

5:                                                ; preds = %0
  %6 = call i32 @__cxa_guard_acquire(ptr @_ZGVZN2cv3dnn14dnn4_v2024122325getParam_DNN_NETWORK_DUMPEvE16DNN_NETWORK_DUMP) #3
  %7 = icmp ne i32 %6, 0
  br i1 %7, label %8, label %11

8:                                                ; preds = %5
  %9 = invoke noundef i64 @_ZN2cv5utils30getConfigurationParameterSizeTEPKcm(ptr noundef @.str, i64 noundef 0)
          to label %10 unwind label %13

10:                                               ; preds = %8
  store i64 %9, ptr @_ZZN2cv3dnn14dnn4_v2024122325getParam_DNN_NETWORK_DUMPEvE16DNN_NETWORK_DUMP, align 8, !tbaa !4
  call void @__cxa_guard_release(ptr @_ZGVZN2cv3dnn14dnn4_v2024122325getParam_DNN_NETWORK_DUMPEvE16DNN_NETWORK_DUMP) #3
  br label %11

11:                                               ; preds = %10, %5, %0
  %12 = load i64, ptr @_ZZN2cv3dnn14dnn4_v2024122325getParam_DNN_NETWORK_DUMPEvE16DNN_NETWORK_DUMP, align 8, !tbaa !4
  ret i64 %12

13:                                               ; preds = %8
  %14 = landingpad { ptr, i32 }
          cleanup
  %15 = extractvalue { ptr, i32 } %14, 0
  store ptr %15, ptr %1, align 8
  %16 = extractvalue { ptr, i32 } %14, 1
  store i32 %16, ptr %2, align 4
  call void @__cxa_guard_abort(ptr @_ZGVZN2cv3dnn14dnn4_v2024122325getParam_DNN_NETWORK_DUMPEvE16DNN_NETWORK_DUMP) #3
  br label %17

17:                                               ; preds = %13
  %18 = load ptr, ptr %1, align 8
  %19 = load i32, ptr %2, align 4
  %20 = insertvalue { ptr, i32 } poison, ptr %18, 0
  %21 = insertvalue { ptr, i32 } %20, i32 %19, 1
  resume { ptr, i32 } %21
}