; Function Attrs: mustprogress uwtable
define hidden noundef i64 @_ZN2cv3dnn14dnn4_v2024122325getParam_DNN_NETWORK_DUMPEv() local_unnamed_addr #3 personality ptr @__gxx_personality_v0 {
  %1 = load atomic i8, ptr @_ZGVZN2cv3dnn14dnn4_v2024122325getParam_DNN_NETWORK_DUMPEvE16DNN_NETWORK_DUMP acquire, align 8
  %2 = icmp eq i8 %1, 0
  br i1 %2, label %3, label %8, !prof !3

3:                                                ; preds = %0
  %4 = tail call i32 @__cxa_guard_acquire(ptr nonnull @_ZGVZN2cv3dnn14dnn4_v2024122325getParam_DNN_NETWORK_DUMPEvE16DNN_NETWORK_DUMP) #5
  %.not = icmp eq i32 %4, 0
  br i1 %.not, label %8, label %5

5:                                                ; preds = %3
  %6 = invoke noundef i64 @_ZN2cv5utils30getConfigurationParameterSizeTEPKcm(ptr noundef nonnull @.str, i64 noundef 0)
          to label %7 unwind label %10

7:                                                ; preds = %5
  store i64 %6, ptr @_ZZN2cv3dnn14dnn4_v2024122325getParam_DNN_NETWORK_DUMPEvE16DNN_NETWORK_DUMP, align 8, !tbaa !4
  tail call void @__cxa_guard_release(ptr nonnull @_ZGVZN2cv3dnn14dnn4_v2024122325getParam_DNN_NETWORK_DUMPEvE16DNN_NETWORK_DUMP) #5
  br label %8

8:                                                ; preds = %7, %3, %0
  %9 = load i64, ptr @_ZZN2cv3dnn14dnn4_v2024122325getParam_DNN_NETWORK_DUMPEvE16DNN_NETWORK_DUMP, align 8, !tbaa !4
  ret i64 %9

10:                                               ; preds = %5
  %11 = landingpad { ptr, i32 }
          cleanup
  tail call void @__cxa_guard_abort(ptr nonnull @_ZGVZN2cv3dnn14dnn4_v2024122325getParam_DNN_NETWORK_DUMPEvE16DNN_NETWORK_DUMP) #5
  resume { ptr, i32 } %11
}